; ModuleID = '2/475.c'
source_filename = "2/475.c"
target datalayout = "e-m:e-p270:32:32-p271:32:32-p272:64:64-i64:64-f80:128-n8:16:32:64-S128"
target triple = "x86_64-pc-linux-gnu"

%struct.books = type { i32, [20 x i8] }

@.str = private unnamed_addr constant [3 x i8] c"%d\00", align 1
@.str.1 = private unnamed_addr constant [6 x i8] c"%d %s\00", align 1
@.str.2 = private unnamed_addr constant [7 x i8] c"%c\0A%d\0A\00", align 1
@.str.3 = private unnamed_addr constant [4 x i8] c"%d\0A\00", align 1

; Function Attrs: noinline nounwind uwtable
define dso_local i32 @main() #0 {
  %1 = alloca i32, align 4
  %2 = alloca [1000 x %struct.books], align 16
  %3 = alloca i32, align 4
  %4 = alloca i32, align 4
  %5 = alloca i32, align 4
  %6 = alloca i32, align 4
  %7 = alloca i32, align 4
  %8 = alloca i32, align 4
  %9 = alloca i32, align 4
  %10 = alloca i32, align 4
  %11 = alloca [26 x i32], align 16
  store i32 0, i32* %1, align 4
  store i32 0, i32* %9, align 4
  store i32 0, i32* %10, align 4
  %12 = bitcast [26 x i32]* %11 to i8*
  call void @llvm.memset.p0i8.i64(i8* align 16 %12, i8 0, i64 104, i1 false)
  %13 = call i32 (i8*, ...) @__isoc99_scanf(i8* getelementptr inbounds ([3 x i8], [3 x i8]* @.str, i64 0, i64 0), i32* %3)
  store i32 0, i32* %4, align 4
  br label %14

14:                                               ; preds = %29, %0
  %15 = load i32, i32* %4, align 4
  %16 = load i32, i32* %3, align 4
  %17 = icmp slt i32 %15, %16
  br i1 %17, label %18, label %32

18:                                               ; preds = %14
  %19 = load i32, i32* %4, align 4
  %20 = sext i32 %19 to i64
  %21 = getelementptr inbounds [1000 x %struct.books], [1000 x %struct.books]* %2, i64 0, i64 %20
  %22 = getelementptr inbounds %struct.books, %struct.books* %21, i32 0, i32 0
  %23 = load i32, i32* %4, align 4
  %24 = sext i32 %23 to i64
  %25 = getelementptr inbounds [1000 x %struct.books], [1000 x %struct.books]* %2, i64 0, i64 %24
  %26 = getelementptr inbounds %struct.books, %struct.books* %25, i32 0, i32 1
  %27 = getelementptr inbounds [20 x i8], [20 x i8]* %26, i64 0, i64 0
  %28 = call i32 (i8*, ...) @__isoc99_scanf(i8* getelementptr inbounds ([6 x i8], [6 x i8]* @.str.1, i64 0, i64 0), i32* %22, i8* %27)
  br label %29

29:                                               ; preds = %18
  %30 = load i32, i32* %4, align 4
  %31 = add nsw i32 %30, 1
  store i32 %31, i32* %4, align 4
  br label %14

32:                                               ; preds = %14
  store i32 0, i32* %4, align 4
  br label %33

33:                                               ; preds = %69, %32
  %34 = load i32, i32* %4, align 4
  %35 = load i32, i32* %3, align 4
  %36 = icmp slt i32 %34, %35
  br i1 %36, label %37, label %72

37:                                               ; preds = %33
  %38 = load i32, i32* %4, align 4
  %39 = sext i32 %38 to i64
  %40 = getelementptr inbounds [1000 x %struct.books], [1000 x %struct.books]* %2, i64 0, i64 %39
  %41 = getelementptr inbounds %struct.books, %struct.books* %40, i32 0, i32 1
  %42 = getelementptr inbounds [20 x i8], [20 x i8]* %41, i64 0, i64 0
  %43 = call i64 @strlen(i8* %42) #4
  %44 = trunc i64 %43 to i32
  store i32 %44, i32* %6, align 4
  store i32 0, i32* %5, align 4
  br label %45

45:                                               ; preds = %65, %37
  %46 = load i32, i32* %5, align 4
  %47 = load i32, i32* %6, align 4
  %48 = icmp slt i32 %46, %47
  br i1 %48, label %49, label %68

49:                                               ; preds = %45
  %50 = load i32, i32* %4, align 4
  %51 = sext i32 %50 to i64
  %52 = getelementptr inbounds [1000 x %struct.books], [1000 x %struct.books]* %2, i64 0, i64 %51
  %53 = getelementptr inbounds %struct.books, %struct.books* %52, i32 0, i32 1
  %54 = load i32, i32* %5, align 4
  %55 = sext i32 %54 to i64
  %56 = getelementptr inbounds [20 x i8], [20 x i8]* %53, i64 0, i64 %55
  %57 = load i8, i8* %56, align 1
  %58 = sext i8 %57 to i32
  store i32 %58, i32* %8, align 4
  %59 = load i32, i32* %8, align 4
  %60 = sub nsw i32 %59, 65
  %61 = sext i32 %60 to i64
  %62 = getelementptr inbounds [26 x i32], [26 x i32]* %11, i64 0, i64 %61
  %63 = load i32, i32* %62, align 4
  %64 = add nsw i32 %63, 1
  store i32 %64, i32* %62, align 4
  br label %65

65:                                               ; preds = %49
  %66 = load i32, i32* %5, align 4
  %67 = add nsw i32 %66, 1
  store i32 %67, i32* %5, align 4
  br label %45

68:                                               ; preds = %45
  br label %69

69:                                               ; preds = %68
  %70 = load i32, i32* %4, align 4
  %71 = add nsw i32 %70, 1
  store i32 %71, i32* %4, align 4
  br label %33

72:                                               ; preds = %33
  %73 = getelementptr inbounds [26 x i32], [26 x i32]* %11, i64 0, i64 0
  %74 = load i32, i32* %73, align 16
  store i32 %74, i32* %7, align 4
  store i32 1, i32* %4, align 4
  br label %75

75:                                               ; preds = %92, %72
  %76 = load i32, i32* %4, align 4
  %77 = icmp slt i32 %76, 26
  br i1 %77, label %78, label %95

78:                                               ; preds = %75
  %79 = load i32, i32* %4, align 4
  %80 = sext i32 %79 to i64
  %81 = getelementptr inbounds [26 x i32], [26 x i32]* %11, i64 0, i64 %80
  %82 = load i32, i32* %81, align 4
  %83 = load i32, i32* %7, align 4
  %84 = icmp sgt i32 %82, %83
  br i1 %84, label %85, label %91

85:                                               ; preds = %78
  %86 = load i32, i32* %4, align 4
  %87 = sext i32 %86 to i64
  %88 = getelementptr inbounds [26 x i32], [26 x i32]* %11, i64 0, i64 %87
  %89 = load i32, i32* %88, align 4
  store i32 %89, i32* %7, align 4
  %90 = load i32, i32* %4, align 4
  store i32 %90, i32* %9, align 4
  br label %91

91:                                               ; preds = %85, %78
  br label %92

92:                                               ; preds = %91
  %93 = load i32, i32* %4, align 4
  %94 = add nsw i32 %93, 1
  store i32 %94, i32* %4, align 4
  br label %75

95:                                               ; preds = %75
  %96 = load i32, i32* %9, align 4
  %97 = add nsw i32 %96, 65
  %98 = load i32, i32* %7, align 4
  %99 = call i32 (i8*, ...) @printf(i8* getelementptr inbounds ([7 x i8], [7 x i8]* @.str.2, i64 0, i64 0), i32 %97, i32 %98)
  store i32 0, i32* %4, align 4
  br label %100

100:                                              ; preds = %141, %95
  %101 = load i32, i32* %4, align 4
  %102 = load i32, i32* %3, align 4
  %103 = icmp slt i32 %101, %102
  br i1 %103, label %104, label %144

104:                                              ; preds = %100
  %105 = load i32, i32* %4, align 4
  %106 = sext i32 %105 to i64
  %107 = getelementptr inbounds [1000 x %struct.books], [1000 x %struct.books]* %2, i64 0, i64 %106
  %108 = getelementptr inbounds %struct.books, %struct.books* %107, i32 0, i32 1
  %109 = getelementptr inbounds [20 x i8], [20 x i8]* %108, i64 0, i64 0
  %110 = call i64 @strlen(i8* %109) #4
  %111 = trunc i64 %110 to i32
  store i32 %111, i32* %6, align 4
  store i32 0, i32* %5, align 4
  br label %112

112:                                              ; preds = %137, %104
  %113 = load i32, i32* %5, align 4
  %114 = load i32, i32* %6, align 4
  %115 = icmp slt i32 %113, %114
  br i1 %115, label %116, label %140

116:                                              ; preds = %112
  %117 = load i32, i32* %9, align 4
  %118 = add nsw i32 %117, 65
  %119 = load i32, i32* %4, align 4
  %120 = sext i32 %119 to i64
  %121 = getelementptr inbounds [1000 x %struct.books], [1000 x %struct.books]* %2, i64 0, i64 %120
  %122 = getelementptr inbounds %struct.books, %struct.books* %121, i32 0, i32 1
  %123 = load i32, i32* %5, align 4
  %124 = sext i32 %123 to i64
  %125 = getelementptr inbounds [20 x i8], [20 x i8]* %122, i64 0, i64 %124
  %126 = load i8, i8* %125, align 1
  %127 = sext i8 %126 to i32
  %128 = icmp eq i32 %118, %127
  br i1 %128, label %129, label %136

129:                                              ; preds = %116
  %130 = load i32, i32* %4, align 4
  %131 = sext i32 %130 to i64
  %132 = getelementptr inbounds [1000 x %struct.books], [1000 x %struct.books]* %2, i64 0, i64 %131
  %133 = getelementptr inbounds %struct.books, %struct.books* %132, i32 0, i32 0
  %134 = load i32, i32* %133, align 8
  %135 = call i32 (i8*, ...) @printf(i8* getelementptr inbounds ([4 x i8], [4 x i8]* @.str.3, i64 0, i64 0), i32 %134)
  br label %136

136:                                              ; preds = %129, %116
  br label %137

137:                                              ; preds = %136
  %138 = load i32, i32* %5, align 4
  %139 = add nsw i32 %138, 1
  store i32 %139, i32* %5, align 4
  br label %112

140:                                              ; preds = %112
  br label %141

141:                                              ; preds = %140
  %142 = load i32, i32* %4, align 4
  %143 = add nsw i32 %142, 1
  store i32 %143, i32* %4, align 4
  br label %100

144:                                              ; preds = %100
  ret i32 0
}

; Function Attrs: argmemonly nounwind willreturn
declare void @llvm.memset.p0i8.i64(i8* nocapture writeonly, i8, i64, i1 immarg) #1

declare dso_local i32 @__isoc99_scanf(i8*, ...) #2

; Function Attrs: nounwind readonly
declare dso_local i64 @strlen(i8*) #3

declare dso_local i32 @printf(i8*, ...) #2


!llvm.module.flags = !{!0}
!llvm.ident = !{!1}

!0 = !{i32 1, !"wchar_size", i32 4}
!1 = !{!"clang version 10.0.0-4ubuntu1 "}
